target datalayout = "e-m:e-p270:32:32-p271:32:32-p272:64:64-i64:64-i128:128-f80:128-n8:16:32:64-S128"
target triple = "x86_64-pc-linux-gnu"

%struct.AVFilterContext = type { ptr, ptr, ptr, ptr, ptr, i32, ptr, ptr, i32, ptr, ptr, i32, i32, ptr, ptr, ptr, ptr, i32, ptr, i32, i32 }
%struct.FsyncContext = type { ptr, ptr, ptr, ptr, ptr, ptr, ptr, i64, i64, i32, i32 }

@.str.11 = private unnamed_addr constant [14 x i8] c"filename: %s\0A\00", align 1

; Function Attrs: nounwind uwtable
define internal i32 @buf_fill(ptr noundef %0) #1 {
  %2 = alloca i32, align 4
  %3 = alloca ptr, align 8
  %4 = alloca i32, align 4
  %5 = alloca i32, align 4
  %6 = alloca i32, align 4
  store ptr %0, ptr %3, align 8, !tbaa !22
  call void @llvm.lifetime.start.p0(i64 4, ptr %4) #6
  call void @llvm.lifetime.start.p0(i64 4, ptr %5) #6
  %7 = load ptr, ptr %3, align 8, !tbaa !22
  %8 = getelementptr inbounds nuw %struct.FsyncContext, ptr %7, i32 0, i32 6
  %9 = load ptr, ptr %8, align 8, !tbaa !32
  %10 = load ptr, ptr %3, align 8, !tbaa !22
  %11 = getelementptr inbounds nuw %struct.FsyncContext, ptr %10, i32 0, i32 5
  %12 = load ptr, ptr %11, align 8, !tbaa !31
  %13 = ptrtoint ptr %9 to i64
  %14 = ptrtoint ptr %12 to i64
  %15 = sub i64 %13, %14
  %16 = trunc i64 %15 to i32
  store i32 %16, ptr %5, align 4, !tbaa !30
  %17 = load ptr, ptr %3, align 8, !tbaa !22
  %18 = getelementptr inbounds nuw %struct.FsyncContext, ptr %17, i32 0, i32 1
  %19 = load ptr, ptr %18, align 8, !tbaa !38
  %20 = load ptr, ptr %3, align 8, !tbaa !22
  %21 = getelementptr inbounds nuw %struct.FsyncContext, ptr %20, i32 0, i32 5
  %22 = load ptr, ptr %21, align 8, !tbaa !31
  %23 = load i32, ptr %5, align 4, !tbaa !30
  %24 = call i32 @avio_read(ptr noundef %19, ptr noundef %22, i32 noundef %23)
  store i32 %24, ptr %4, align 4, !tbaa !30
  %25 = load i32, ptr %4, align 4, !tbaa !30
  %26 = icmp slt i32 %25, 0
  br i1 %26, label %27, label %29

27:                                               ; preds = %1
  %28 = load i32, ptr %4, align 4, !tbaa !30
  store i32 %28, ptr %2, align 4
  store i32 1, ptr %6, align 4
  br label %42

29:                                               ; preds = %1
  %30 = load i32, ptr %4, align 4, !tbaa !30
  %31 = load i32, ptr %5, align 4, !tbaa !30
  %32 = icmp slt i32 %30, %31
  br i1 %32, label %33, label %40

33:                                               ; preds = %29
  %34 = load ptr, ptr %3, align 8, !tbaa !22
  %35 = getelementptr inbounds nuw %struct.FsyncContext, ptr %34, i32 0, i32 5
  %36 = load ptr, ptr %35, align 8, !tbaa !31
  %37 = load i32, ptr %4, align 4, !tbaa !30
  %38 = sext i32 %37 to i64
  %39 = getelementptr inbounds i8, ptr %36, i64 %38
  store i8 0, ptr %39, align 1, !tbaa !33
  br label %40

40:                                               ; preds = %33, %29
  %41 = load i32, ptr %4, align 4, !tbaa !30
  store i32 %41, ptr %2, align 4
  store i32 1, ptr %6, align 4
  br label %42

42:                                               ; preds = %40, %27
  call void @llvm.lifetime.end.p0(i64 4, ptr %5) #6
  call void @llvm.lifetime.end.p0(i64 4, ptr %4) #6
  %43 = load i32, ptr %2, align 4
  ret i32 %43
}

; Function Attrs: cold nounwind optsize uwtable
define internal i32 @fsync_init(ptr noundef %0) #0 {
  %2 = alloca i32, align 4
  %3 = alloca ptr, align 8
  %4 = alloca ptr, align 8
  %5 = alloca i32, align 4
  %6 = alloca i32, align 4
  store ptr %0, ptr %3, align 8, !tbaa !4
  call void @llvm.lifetime.start.p0(i64 8, ptr %4) #6
  %7 = load ptr, ptr %3, align 8, !tbaa !4
  %8 = getelementptr inbounds nuw %struct.AVFilterContext, ptr %7, i32 0, i32 9
  %9 = load ptr, ptr %8, align 8, !tbaa !9
  store ptr %9, ptr %4, align 8, !tbaa !22
  call void @llvm.lifetime.start.p0(i64 4, ptr %5) #6
  %10 = load ptr, ptr %3, align 8, !tbaa !4
  %11 = load ptr, ptr %4, align 8, !tbaa !22
  %12 = getelementptr inbounds nuw %struct.FsyncContext, ptr %11, i32 0, i32 3
  %13 = load ptr, ptr %12, align 8, !tbaa !24
  call void (ptr, i32, ptr, ...) @av_log(ptr noundef %10, i32 noundef 48, ptr noundef @.str.11, ptr noundef %13)
  %14 = call noalias ptr @av_malloc(i64 noundef 257)
  %15 = load ptr, ptr %4, align 8, !tbaa !22
  %16 = getelementptr inbounds nuw %struct.FsyncContext, ptr %15, i32 0, i32 4
  store ptr %14, ptr %16, align 8, !tbaa !29
  %17 = load ptr, ptr %4, align 8, !tbaa !22
  %18 = getelementptr inbounds nuw %struct.FsyncContext, ptr %17, i32 0, i32 4
  %19 = load ptr, ptr %18, align 8, !tbaa !29
  %20 = icmp ne ptr %19, null
  br i1 %20, label %22, label %21

21:                                               ; preds = %1
  store i32 -12, ptr %2, align 4
  store i32 1, ptr %6, align 4
  br label %56

22:                                               ; preds = %1
  %23 = load ptr, ptr %4, align 8, !tbaa !22
  %24 = getelementptr inbounds nuw %struct.FsyncContext, ptr %23, i32 0, i32 1
  %25 = load ptr, ptr %4, align 8, !tbaa !22
  %26 = getelementptr inbounds nuw %struct.FsyncContext, ptr %25, i32 0, i32 3
  %27 = load ptr, ptr %26, align 8, !tbaa !24
  %28 = call i32 @avio_open(ptr noundef %24, ptr noundef %27, i32 noundef 1)
  store i32 %28, ptr %5, align 4, !tbaa !30
  %29 = load i32, ptr %5, align 4, !tbaa !30
  %30 = icmp slt i32 %29, 0
  br i1 %30, label %31, label %33

31:                                               ; preds = %22
  %32 = load i32, ptr %5, align 4, !tbaa !30
  store i32 %32, ptr %2, align 4
  store i32 1, ptr %6, align 4
  br label %56

33:                                               ; preds = %22
  %34 = load ptr, ptr %4, align 8, !tbaa !22
  %35 = getelementptr inbounds nuw %struct.FsyncContext, ptr %34, i32 0, i32 4
  %36 = load ptr, ptr %35, align 8, !tbaa !29
  %37 = load ptr, ptr %4, align 8, !tbaa !22
  %38 = getelementptr inbounds nuw %struct.FsyncContext, ptr %37, i32 0, i32 5
  store ptr %36, ptr %38, align 8, !tbaa !31
  %39 = load ptr, ptr %4, align 8, !tbaa !22
  %40 = getelementptr inbounds nuw %struct.FsyncContext, ptr %39, i32 0, i32 4
  %41 = load ptr, ptr %40, align 8, !tbaa !29
  %42 = getelementptr inbounds i8, ptr %41, i64 256
  %43 = load ptr, ptr %4, align 8, !tbaa !22
  %44 = getelementptr inbounds nuw %struct.FsyncContext, ptr %43, i32 0, i32 6
  store ptr %42, ptr %44, align 8, !tbaa !32
  %45 = load ptr, ptr %4, align 8, !tbaa !22
  %46 = getelementptr inbounds nuw %struct.FsyncContext, ptr %45, i32 0, i32 4
  %47 = load ptr, ptr %46, align 8, !tbaa !29
  %48 = getelementptr inbounds i8, ptr %47, i64 256
  store i8 0, ptr %48, align 1, !tbaa !33
  %49 = load ptr, ptr %4, align 8, !tbaa !22
  %50 = call i32 @buf_fill(ptr noundef %49)
  store i32 %50, ptr %5, align 4, !tbaa !30
  %51 = load i32, ptr %5, align 4, !tbaa !30
  %52 = icmp slt i32 %51, 0
  br i1 %52, label %53, label %55

53:                                               ; preds = %33
  %54 = load i32, ptr %5, align 4, !tbaa !30
  store i32 %54, ptr %2, align 4
  store i32 1, ptr %6, align 4
  br label %56

55:                                               ; preds = %33
  store i32 0, ptr %2, align 4
  store i32 1, ptr %6, align 4
  br label %56

56:                                               ; preds = %55, %53, %31, %21
  call void @llvm.lifetime.end.p0(i64 4, ptr %5) #6
  call void @llvm.lifetime.end.p0(i64 8, ptr %4) #6
  %57 = load i32, ptr %2, align 4
  ret i32 %57
}