; Function Attrs: cold nounwind optsize uwtable
define internal range(i32 -2147483648, 1) i32 @fsync_init(ptr noundef %0) #0 {
  %2 = getelementptr inbounds nuw i8, ptr %0, i64 72
  %3 = load ptr, ptr %2, align 8, !tbaa !4
  %4 = getelementptr inbounds nuw i8, ptr %3, i64 24
  %5 = load ptr, ptr %4, align 8, !tbaa !20
  tail call void (ptr, i32, ptr, ...) @av_log(ptr noundef %0, i32 noundef 48, ptr noundef nonnull @.str.11, ptr noundef %5) #5
  %6 = tail call noalias ptr @av_malloc(i64 noundef 257) #5
  %7 = getelementptr inbounds nuw i8, ptr %3, i64 32
  store ptr %6, ptr %7, align 8, !tbaa !25
  %.not = icmp eq ptr %6, null
  br i1 %.not, label %32, label %8

8:                                                ; preds = %1
  %9 = getelementptr inbounds nuw i8, ptr %3, i64 8
  %10 = load ptr, ptr %4, align 8, !tbaa !20
  %11 = tail call i32 @avio_open(ptr noundef nonnull %9, ptr noundef %10, i32 noundef 1) #5
  %12 = icmp slt i32 %11, 0
  br i1 %12, label %32, label %13

13:                                               ; preds = %8
  %14 = load ptr, ptr %7, align 8, !tbaa !25
  %15 = getelementptr inbounds nuw i8, ptr %3, i64 40
  store ptr %14, ptr %15, align 8, !tbaa !26
  %16 = getelementptr inbounds nuw i8, ptr %14, i64 256
  %17 = getelementptr inbounds nuw i8, ptr %3, i64 48
  store ptr %16, ptr %17, align 8, !tbaa !27
  store i8 0, ptr %16, align 1, !tbaa !28
  %18 = load ptr, ptr %17, align 8, !tbaa !27
  %19 = load ptr, ptr %15, align 8, !tbaa !26
  %20 = ptrtoint ptr %18 to i64
  %21 = ptrtoint ptr %19 to i64
  %22 = sub i64 %20, %21
  %23 = trunc i64 %22 to i32
  %24 = load ptr, ptr %9, align 8, !tbaa !29
  %25 = tail call i32 @avio_read(ptr noundef %24, ptr noundef %19, i32 noundef %23) #5
  %26 = icmp sgt i32 %25, -1
  %27 = icmp slt i32 %25, %23
  %or.cond.i = and i1 %26, %27
  br i1 %or.cond.i, label %28, label %buf_fill.exit

28:                                               ; preds = %13
  %29 = load ptr, ptr %15, align 8, !tbaa !26
  %30 = zext nneg i32 %25 to i64
  %31 = getelementptr inbounds nuw i8, ptr %29, i64 %30
  store i8 0, ptr %31, align 1, !tbaa !28
  br label %buf_fill.exit

buf_fill.exit:                                    ; preds = %13, %28
  %. = tail call i32 @llvm.smin.i32(i32 %25, i32 0)
  br label %32

32:                                               ; preds = %buf_fill.exit, %8, %1
  %.0 = phi i32 [ -12, %1 ], [ %11, %8 ], [ %., %buf_fill.exit ]
  ret i32 %.0
}